EXPORTS
??$str_to_floating@N@detail@folly@@YA?AV?$Expected@NW4ConversionCode@folly@@@1@PAV?$Range@PBD@1@@Z
??0JSBigStringResourceDll@react@facebook@@QAE@PAUHINSTANCE__@@PAUHRSRC__@@@Z
??0LayoutAnimation@react@facebook@@QAE@Udynamic@folly@@@Z
??0TypeError@folly@@QAE@ABV?$basic_string@DU?$char_traits@D@std@@V?$allocator@D@2@@std@@W4Type@dynamic@1@1@Z
??0TypeError@folly@@QAE@ABV?$basic_string@DU?$char_traits@D@std@@V?$allocator@D@2@@std@@W4Type@dynamic@1@@Z
??1ShadowNode@react@facebook@@UAE@XZ
??1TypeError@folly@@UAE@XZ
??4dynamic@folly@@QAEAAU01@$$QAU01@@Z
??4dynamic@folly@@QAEAAU01@ABU01@@Z
??8dynamic@folly@@QBE_NABU01@@Z
?CreateAsyncStorageModule@react@facebook@@YA?AV?$unique_ptr@VCxxModule@module@xplat@facebook@@U?$default_delete@VCxxModule@module@xplat@facebook@@@std@@@std@@PB_W@Z
?CreateTimingModule@react@facebook@@YA?AV?$unique_ptr@VCxxModule@module@xplat@facebook@@U?$default_delete@VCxxModule@module@xplat@facebook@@@std@@@std@@ABV?$shared_ptr@VMessageQueueThread@react@facebook@@@4@@Z
?CreateWebSocketModule@React@Microsoft@@YA?AV?$unique_ptr@VCxxModule@module@xplat@facebook@@U?$default_delete@VCxxModule@module@xplat@facebook@@@std@@@std@@XZ
?GetConstants@ViewManagerBase@react@facebook@@UBE?AUdynamic@folly@@XZ
?InitializeLogging@react@facebook@@YAX$$QAV?$function@$$A6AXW4RCTLogLevel@react@facebook@@PBD@Z@std@@@Z
?InitializeTracing@react@facebook@@YAXPAUINativeTraceHandler@12@@Z
?Make@IWebSocket@React@Microsoft@@SA?AV?$unique_ptr@UIWebSocket@React@Microsoft@@U?$default_delete@UIWebSocket@React@Microsoft@@@std@@@std@@ABV?$basic_string@DU?$char_traits@D@std@@V?$allocator@D@2@@5@@Z
?Make@JSBigStringResourceDll@react@facebook@@SA?AV?$unique_ptr@$$CBVJSBigStringResourceDll@react@facebook@@U?$default_delete@$$CBVJSBigStringResourceDll@react@facebook@@@std@@@std@@PAUHINSTANCE__@@PAUHRSRC__@@@Z
?callJSFunction@Instance@react@facebook@@UAEX$$QAV?$basic_string@DU?$char_traits@D@std@@V?$allocator@D@2@@std@@0$$QAUdynamic@folly@@@Z
?createI18nModule@windows@react@@YA?AV?$unique_ptr@VCxxModule@module@xplat@facebook@@U?$default_delete@VCxxModule@module@xplat@facebook@@@std@@@std@@V?$unique_ptr@UII18nModule@windows@react@@U?$default_delete@UII18nModule@windows@react@@@std@@@4@@Z
?createIUIManager@react@facebook@@YA?AV?$shared_ptr@VIUIManager@react@facebook@@@std@@$$QAV?$vector@V?$unique_ptr@VIViewManager@react@facebook@@U?$default_delete@VIViewManager@react@facebook@@@std@@@std@@V?$allocator@V?$unique_ptr@VIViewManager@react@facebook@@U?$default_delete@VIViewManager@react@facebook@@@std@@@std@@@2@@4@PAUINativeUIManager@12@@Z
?createUIManagerModule@react@facebook@@YA?AV?$unique_ptr@VCxxModule@module@xplat@facebook@@U?$default_delete@VCxxModule@module@xplat@facebook@@@std@@@std@@V?$shared_ptr@VIUIManager@react@facebook@@@4@@Z
?destroy@dynamic@folly@@AAEXXZ
?dispatchCommand@ShadowNode@react@facebook@@UAEX_JABUdynamic@folly@@@Z
?getPeakJsMemoryUsage@Instance@react@facebook@@QBE_JXZ
?hash@dynamic@folly@@QBEIXZ
?size@dynamic@folly@@QBEIXZ
?toJson@folly@@YA?AV?$basic_string@DU?$char_traits@D@std@@V?$allocator@D@2@@std@@ABUdynamic@1@@Z
?typeName@dynamic@folly@@QBEPBDXZ
?updateProperties@ShadowNode@react@facebook@@UAEX$$QBUdynamic@folly@@@Z
?utf16ToUtf8@unicode@react@facebook@@YA?AV?$basic_string@DU?$char_traits@D@std@@V?$allocator@D@2@@std@@ABV?$basic_string@_WU?$char_traits@_W@std@@V?$allocator@_W@2@@5@@Z
?utf8ToUtf16@unicode@react@facebook@@YA?AV?$basic_string@_WU?$char_traits@_W@std@@V?$allocator@_W@2@@std@@ABV?$basic_string@DU?$char_traits@D@std@@V?$allocator@D@2@@5@@Z

YGAssert
YGAssertWithConfig
YGAssertWithNode
YGConfigCopy
YGConfigFree
YGConfigGetContext
YGConfigGetDefault
YGConfigGetInstanceCount
YGConfigGetUseWebDefaults
YGConfigIsExperimentalFeatureEnabled
YGConfigNew
YGConfigSetContext
YGConfigSetExperimentalFeatureEnabled
YGConfigSetLogger
YGConfigSetPointScaleFactor
YGConfigSetUseLegacyStretchBehaviour
YGConfigSetUseWebDefaults
YGFloatIsUndefined
YGLog
YGLogWithConfig
YGNodeCalculateLayout
YGNodeCanUseCachedMeasurement
YGNodeCopyStyle
YGNodeFree
YGNodeFreeRecursive
YGNodeGetBaselineFunc
YGNodeGetChild
YGNodeGetChildCount
YGNodeGetContext
YGNodeGetHasNewLayout
YGNodeGetInstanceCount
YGNodeGetMeasureFunc
YGNodeGetNodeType
YGNodeGetParent
YGNodeGetPrintFunc
YGNodeInsertChild
YGNodeIsDirty
YGNodeLayoutGetBorder
YGNodeLayoutGetBottom
YGNodeLayoutGetDirection
YGNodeLayoutGetHeight
YGNodeLayoutGetLeft
YGNodeLayoutGetMargin
YGNodeLayoutGetPadding
YGNodeLayoutGetRight
YGNodeLayoutGetTop
YGNodeLayoutGetWidth
YGNodeMarkDirty
YGNodeNew
YGNodeNewWithConfig
YGNodePrint
YGNodeRemoveChild
YGNodeReset
YGNodeSetBaselineFunc
YGNodeSetContext
YGNodeSetHasNewLayout
YGNodeSetMeasureFunc
YGNodeSetNodeType
YGNodeSetPrintFunc
YGNodeStyleGetAlignContent
YGNodeStyleGetAlignItems
YGNodeStyleGetAlignSelf
YGNodeStyleGetAspectRatio
YGNodeStyleGetBorder
YGNodeStyleGetDirection
YGNodeStyleGetDisplay
YGNodeStyleGetFlex
YGNodeStyleGetFlexBasis
YGNodeStyleGetFlexDirection
YGNodeStyleGetFlexGrow
YGNodeStyleGetFlexShrink
YGNodeStyleGetFlexWrap
YGNodeStyleGetHeight
YGNodeStyleGetJustifyContent
YGNodeStyleGetMargin
YGNodeStyleGetMaxHeight
YGNodeStyleGetMaxWidth
YGNodeStyleGetMinHeight
YGNodeStyleGetMinWidth
YGNodeStyleGetOverflow
YGNodeStyleGetPadding
YGNodeStyleGetPosition
YGNodeStyleGetWidth
YGNodeStyleSetAlignContent
YGNodeStyleSetAlignItems
YGNodeStyleSetAlignSelf
YGNodeStyleSetAspectRatio
YGNodeStyleSetBorder
YGNodeStyleSetDirection
YGNodeStyleSetDisplay
YGNodeStyleSetFlex
YGNodeStyleSetFlexBasis
YGNodeStyleSetFlexBasisAuto
YGNodeStyleSetFlexBasisPercent
YGNodeStyleSetFlexDirection
YGNodeStyleSetFlexGrow
YGNodeStyleSetFlexShrink
YGNodeStyleSetFlexWrap
YGNodeStyleSetHeight
YGNodeStyleSetHeightAuto
YGNodeStyleSetHeightPercent
YGNodeStyleSetJustifyContent
YGNodeStyleSetMargin
YGNodeStyleSetMarginAuto
YGNodeStyleSetMarginPercent
YGNodeStyleSetMaxHeight
YGNodeStyleSetMaxHeightPercent
YGNodeStyleSetMaxWidth
YGNodeStyleSetMaxWidthPercent
YGNodeStyleSetMinHeight
YGNodeStyleSetMinHeightPercent
YGNodeStyleSetMinWidth
YGNodeStyleSetMinWidthPercent
YGNodeStyleSetOverflow
YGNodeStyleSetPadding
YGNodeStyleSetPaddingPercent
YGNodeStyleSetPosition
YGNodeStyleSetPositionPercent
YGNodeStyleSetPositionType
YGNodeStyleSetWidth
YGNodeStyleSetWidthAuto
YGNodeStyleSetWidthPercent
YGUnitToString
