; **************************************************************************************************
; * To improve ABI safety, the CXE team is redesigning the API of the react-native-win32 DLL. To not
; * jeopardize this effort, please do not add anything to the DLL exports without checking with the
; * CXE team first.
; **************************************************************************************************

EXPORTS
??$str_to_floating@N@detail@folly@@YA?AV?$Expected@NW4ConversionCode@folly@@@1@PAV?$Range@PBD@1@@Z
??$str_to_integral@_J@detail@folly@@YA?AV?$Expected@_JW4ConversionCode@folly@@@1@PAV?$Range@PBD@1@@Z
??0ColdClass@cold_detail@folly@@QAE@XZ
??0LayoutAnimation@react@facebook@@QAE@Udynamic@folly@@@Z
??0TypeError@folly@@QAE@$$QAU01@@Z
??0TypeError@folly@@QAE@ABU01@@Z
??0TypeError@folly@@QAE@ABV?$basic_string@DU?$char_traits@D@std@@V?$allocator@D@2@@std@@W4Type@dynamic@1@1@Z
??0TypeError@folly@@QAE@ABV?$basic_string@DU?$char_traits@D@std@@V?$allocator@D@2@@std@@W4Type@dynamic@1@@Z
??1ShadowNode@react@facebook@@UAE@XZ
??1TypeError@folly@@UAE@XZ
??4dynamic@folly@@QAEAAU01@$$QAU01@@Z
??4dynamic@folly@@QAEAAU01@ABU01@@Z
??8dynamic@folly@@QBE_NABU01@@Z
??Adynamic@folly@@QGAEAAU01@V?$Range@PBD@1@@Z
?CreateMemoryTracker@react@facebook@@YG?AV?$shared_ptr@VMemoryTracker@react@facebook@@@std@@$$QAV?$shared_ptr@VMessageQueueThread@react@facebook@@@4@@Z
?CreateReactInstance@react@facebook@@YG?AV?$shared_ptr@UInstanceWrapper@react@facebook@@@std@@$$QAV?$basic_string@DU?$char_traits@D@std@@V?$allocator@D@2@@4@$$QAV?$vector@V?$tuple@V?$basic_string@DU?$char_traits@D@std@@V?$allocator@D@2@@std@@V?$function@$$A6G?AV?$unique_ptr@VCxxModule@module@xplat@facebook@@U?$default_delete@VCxxModule@module@xplat@facebook@@@std@@@std@@XZ@2@V?$shared_ptr@VMessageQueueThread@react@facebook@@@2@@std@@V?$allocator@V?$tuple@V?$basic_string@DU?$char_traits@D@std@@V?$allocator@D@2@@std@@V?$function@$$A6G?AV?$unique_ptr@VCxxModule@module@xplat@facebook@@U?$default_delete@VCxxModule@module@xplat@facebook@@@std@@@std@@XZ@2@V?$shared_ptr@VMessageQueueThread@react@facebook@@@2@@std@@@2@@4@V?$shared_ptr@VIUIManager@react@facebook@@@4@V?$shared_ptr@VMessageQueueThread@react@facebook@@@4@3V?$shared_ptr@UDevSettings@react@facebook@@@4@@Z
?GetConstants@ViewManagerBase@react@facebook@@UBE?AUdynamic@folly@@XZ
?InitializeLogging@react@facebook@@YGX$$QAV?$function@$$A6GXW4RCTLogLevel@react@facebook@@PBD@Z@std@@@Z
?InitializeTracing@react@facebook@@YGXPAUINativeTraceHandler@12@@Z
?Make@IWebSocket@React@Microsoft@@SG?AV?$unique_ptr@UIWebSocket@React@Microsoft@@U?$default_delete@UIWebSocket@React@Microsoft@@@std@@@std@@ABV?$basic_string@DU?$char_traits@D@std@@V?$allocator@D@2@@5@@Z
?Make@JSBigAbiString@react@facebook@@SG?AV?$unique_ptr@$$CBUJSBigAbiString@react@facebook@@U?$default_delete@$$CBUJSBigAbiString@react@facebook@@@std@@@std@@$$QAV?$unique_ptr@U?$IAbiArray@D@AbiSafe@@UAbiObjectDeleter@2@@5@@Z
?MakeMemoryMappedBuffer@JSI@Microsoft@@YG?AV?$shared_ptr@VBuffer@jsi@facebook@@@std@@QB_WI@Z
?moduleNames@ModuleRegistry@react@facebook@@QAE?AV?$vector@V?$basic_string@DU?$char_traits@D@std@@V?$allocator@D@2@@std@@V?$allocator@V?$basic_string@DU?$char_traits@D@std@@V?$allocator@D@2@@std@@@2@@std@@XZ
?at@dynamic@folly@@QGBEABU12@V?$Range@PBD@2@@Z
?atImpl@dynamic@folly@@AGBEABU12@ABU12@@Z
?callJSFunction@Instance@react@facebook@@QAEX$$QAV?$basic_string@DU?$char_traits@D@std@@V?$allocator@D@2@@std@@0$$QAUdynamic@folly@@@Z
?createI18nModule@windows@react@@YG?AV?$unique_ptr@VCxxModule@module@xplat@facebook@@U?$default_delete@VCxxModule@module@xplat@facebook@@@std@@@std@@V?$unique_ptr@UII18nModule@windows@react@@U?$default_delete@UII18nModule@windows@react@@@std@@@4@@Z
?createIUIManager@react@facebook@@YG?AV?$shared_ptr@VIUIManager@react@facebook@@@std@@$$QAV?$vector@V?$unique_ptr@VIViewManager@react@facebook@@U?$default_delete@VIViewManager@react@facebook@@@std@@@std@@V?$allocator@V?$unique_ptr@VIViewManager@react@facebook@@U?$default_delete@VIViewManager@react@facebook@@@std@@@std@@@2@@4@PAUINativeUIManager@12@@Z
?createUIManagerModule@react@facebook@@YG?AV?$unique_ptr@VCxxModule@module@xplat@facebook@@U?$default_delete@VCxxModule@module@xplat@facebook@@@std@@@std@@V?$shared_ptr@VIUIManager@react@facebook@@@4@@Z
?destroy@dynamic@folly@@AAEXXZ
?dispatchCommand@ShadowNode@react@facebook@@UAEX_JABUdynamic@folly@@@Z
?getModuleRegistry@Instance@react@facebook@@QAEAAVModuleRegistry@23@XZ
?getPeakJsMemoryUsage@Instance@react@facebook@@QBE_JXZ
?get_ptr@dynamic@folly@@QGBEPBU12@V?$Range@PBD@2@@Z
?get_ptrImpl@dynamic@folly@@AGBEPBU12@ABU12@@Z
?hash@dynamic@folly@@QBEIXZ
?loadScriptFromString@Instance@react@facebook@@QAEXV?$unique_ptr@$$CBVJSBigString@react@facebook@@U?$default_delete@$$CBVJSBigString@react@facebook@@@std@@@std@@V?$basic_string@DU?$char_traits@D@std@@V?$allocator@D@2@@5@_N@Z
?makeConversionError@folly@@YA?AVConversionError@1@W4ConversionCode@1@V?$Range@PBD@1@@Z
?parseJson@folly@@YA?AUdynamic@1@V?$Range@PBD@1@@Z
?setGlobalVariable@Instance@react@facebook@@QAEXV?$basic_string@DU?$char_traits@D@std@@V?$allocator@D@2@@std@@V?$unique_ptr@$$CBVJSBigString@react@facebook@@U?$default_delete@$$CBVJSBigString@react@facebook@@@std@@@5@@Z
?size@dynamic@folly@@QBEIXZ
?str_to_bool@detail@folly@@YA?AV?$Expected@_NW4ConversionCode@folly@@@2@PAV?$Range@PBD@2@@Z
?toJson@folly@@YA?AV?$basic_string@DU?$char_traits@D@std@@V?$allocator@D@2@@std@@ABUdynamic@1@@Z
?typeName@dynamic@folly@@QBEPBDXZ
?updateProperties@ShadowNode@react@facebook@@UAEX$$QBUdynamic@folly@@@Z
?Utf16ToUtf8@Unicode@Common@Microsoft@@YG?AV?$basic_string@DU?$char_traits@D@std@@V?$allocator@D@2@@std@@ABV?$basic_string@_WU?$char_traits@_W@std@@V?$allocator@_W@2@@5@@Z

_YGAlignToString
_YGAssert
_YGAssertWithConfig
_YGAssertWithNode
_YGConfigCopy
_YGConfigFree
_YGConfigGetContext
_YGConfigGetDefault
_YGConfigGetInstanceCount
_YGConfigGetUseWebDefaults
_YGConfigIsExperimentalFeatureEnabled
_YGConfigNew
_YGConfigSetContext
_YGConfigSetExperimentalFeatureEnabled
_YGConfigSetLogger
_YGConfigSetPointScaleFactor
_YGConfigSetUseLegacyStretchBehaviour
_YGConfigSetUseWebDefaults
_YGDimensionToString
_YGDirectionToString
_YGDisplayToString
_YGEdgeToString
_YGExperimentalFeatureToString
_YGFlexDirectionToString
_YGFloatIsUndefined
_YGJustifyToString
_YGLogLevelToString
_YGMeasureModeToString
_YGNodeCalculateLayout
_YGNodeCanUseCachedMeasurement
_YGNodeCopyStyle
_YGNodeFree
_YGNodeFreeRecursive
_YGNodeGetChild
_YGNodeGetChildCount
_YGNodeGetContext
_YGNodeGetHasNewLayout
_YGNodeGetNodeType
_YGNodeGetParent
_YGNodeInsertChild
_YGNodeIsDirty
_YGNodeLayoutGetBorder
_YGNodeLayoutGetBottom
_YGNodeLayoutGetDirection
_YGNodeLayoutGetHeight
_YGNodeLayoutGetLeft
_YGNodeLayoutGetMargin
_YGNodeLayoutGetPadding
_YGNodeLayoutGetRight
_YGNodeLayoutGetTop
_YGNodeLayoutGetWidth
_YGNodeMarkDirty
_YGNodeNew
_YGNodeNewWithConfig
_YGNodeRemoveChild
_YGNodeReset
_YGNodeSetBaselineFunc
_YGNodeSetContext
_YGNodeSetHasNewLayout
_YGNodeSetMeasureFunc
_YGNodeSetNodeType
_YGNodeSetPrintFunc
_YGNodeStyleGetAlignContent
_YGNodeStyleGetAlignItems
_YGNodeStyleGetAlignSelf
_YGNodeStyleGetAspectRatio
_YGNodeStyleGetBorder
_YGNodeStyleGetDirection
_YGNodeStyleGetDisplay
_YGNodeStyleGetFlex
_YGNodeStyleGetFlexBasis
_YGNodeStyleGetFlexDirection
_YGNodeStyleGetFlexGrow
_YGNodeStyleGetFlexShrink
_YGNodeStyleGetFlexWrap
_YGNodeStyleGetHeight
_YGNodeStyleGetJustifyContent
_YGNodeStyleGetMargin
_YGNodeStyleGetMaxHeight
_YGNodeStyleGetMaxWidth
_YGNodeStyleGetMinHeight
_YGNodeStyleGetMinWidth
_YGNodeStyleGetOverflow
_YGNodeStyleGetPadding
_YGNodeStyleGetPosition
_YGNodeStyleGetPositionType
_YGNodeStyleGetWidth
_YGNodeStyleSetAlignContent
_YGNodeStyleSetAlignItems
_YGNodeStyleSetAlignSelf
_YGNodeStyleSetAspectRatio
_YGNodeStyleSetBorder
_YGNodeStyleSetDirection
_YGNodeStyleSetDisplay
_YGNodeStyleSetFlex
_YGNodeStyleSetFlexBasis
_YGNodeStyleSetFlexBasisAuto
_YGNodeStyleSetFlexBasisPercent
_YGNodeStyleSetFlexDirection
_YGNodeStyleSetFlexGrow
_YGNodeStyleSetFlexShrink
_YGNodeStyleSetFlexWrap
_YGNodeStyleSetHeight
_YGNodeStyleSetHeightAuto
_YGNodeStyleSetHeightPercent
_YGNodeStyleSetJustifyContent
_YGNodeStyleSetMargin
_YGNodeStyleSetMarginAuto
_YGNodeStyleSetMarginPercent
_YGNodeStyleSetMaxHeight
_YGNodeStyleSetMaxHeightPercent
_YGNodeStyleSetMaxWidth
_YGNodeStyleSetMaxWidthPercent
_YGNodeStyleSetMinHeight
_YGNodeStyleSetMinHeightPercent
_YGNodeStyleSetMinWidth
_YGNodeStyleSetMinWidthPercent
_YGNodeStyleSetOverflow
_YGNodeStyleSetPadding
_YGNodeStyleSetPaddingPercent
_YGNodeStyleSetPosition
_YGNodeStyleSetPositionPercent
_YGNodeStyleSetPositionType
_YGNodeStyleSetWidth
_YGNodeStyleSetWidthAuto
_YGNodeStyleSetWidthPercent
_YGNodeTypeToString
_YGOverflowToString
_YGPositionTypeToString
_YGPrintOptionsToString
_YGUnitToString
_YGWrapToString

DllCanUnloadNow = WINRT_CanUnloadNow                    PRIVATE
DllGetActivationFactory = WINRT_GetActivationFactory    PRIVATE
