; **************************************************************************************************
; * To improve ABI safety, the CXE team is redesigning the API of the react-native-win32 DLL. To not
; * jeopardize this effort, please do not add anything to the DLL exports without checking with the
; * CXE team first.
; **************************************************************************************************

EXPORTS
??0dynamic@folly@@QEAA@$$QEAU01@@Z
?hash@dynamic@folly@@QEBA_KXZ
?destroy@dynamic@folly@@AEAAXXZ
?atImpl@dynamic@folly@@AEGBAAEBU12@AEBU12@@Z
?makeConversionError@folly@@YA?AVConversionError@1@W4ConversionCode@1@V?$Range@PEBD@1@@Z
?str_to_bool@detail@folly@@YA?AV?$Expected@_NW4ConversionCode@folly@@@2@PEAV?$Range@PEBD@2@@Z
??8folly@@YA_NAEBUdynamic@0@0@Z
??4dynamic@folly@@QEAAAEAU01@$$QEAU01@@Z
??Mfolly@@YA_NAEBUdynamic@0@0@Z
??0TypeError@folly@@QEAA@AEBV?$basic_string@DU?$char_traits@D@std@@V?$allocator@D@2@@std@@W4Type@dynamic@1@@Z
??0dynamic@folly@@QEAA@AEBU01@@Z
??$safe_assert_terminate@$0A@@detail@folly@@YAXPEBUsafe_assert_arg@01@ZZ
??$str_to_floating@N@detail@folly@@YA?AV?$Expected@NW4ConversionCode@folly@@@1@PEAV?$Range@PEBD@1@@Z
??$str_to_integral@_J@detail@folly@@YA?AV?$Expected@_JW4ConversionCode@folly@@@1@PEAV?$Range@PEBD@1@@Z
??0LayoutAnimation@react@facebook@@QEAA@Udynamic@folly@@@Z
??0TypeError@folly@@QEAA@$$QEAU01@@Z
??0TypeError@folly@@QEAA@AEBU01@@Z
??0TypeError@folly@@QEAA@AEBV?$basic_string@DU?$char_traits@D@std@@V?$allocator@D@2@@std@@W4Type@dynamic@1@1@Z
??1TypeError@folly@@UEAA@XZ
??4dynamic@folly@@QEAAAEAU01@AEBU01@@Z
??Adynamic@folly@@QEGAAAEAU01@V?$Range@PEBD@1@@Z
?CreateReactInstance@react@facebook@@YA?AV?$shared_ptr@UInstanceWrapper@react@facebook@@@std@@$$QEAV?$shared_ptr@VInstance@react@facebook@@@4@$$QEAV?$basic_string@DU?$char_traits@D@std@@V?$allocator@D@2@@4@$$QEAV?$vector@V?$tuple@V?$basic_string@DU?$char_traits@D@std@@V?$allocator@D@2@@std@@V?$function@$$A6A?AV?$unique_ptr@VCxxModule@module@xplat@facebook@@U?$default_delete@VCxxModule@module@xplat@facebook@@@std@@@std@@XZ@2@V?$shared_ptr@VMessageQueueThread@react@facebook@@@2@@std@@V?$allocator@V?$tuple@V?$basic_string@DU?$char_traits@D@std@@V?$allocator@D@2@@std@@V?$function@$$A6A?AV?$unique_ptr@VCxxModule@module@xplat@facebook@@U?$default_delete@VCxxModule@module@xplat@facebook@@@std@@@std@@XZ@2@V?$shared_ptr@VMessageQueueThread@react@facebook@@@2@@std@@@2@@4@V?$shared_ptr@VTurboModuleRegistry@react@facebook@@@4@$$QEAV?$unique_ptr@UInstanceCallback@react@facebook@@U?$default_delete@UInstanceCallback@react@facebook@@@std@@@4@V?$shared_ptr@VMessageQueueThread@react@facebook@@@4@5V?$shared_ptr@UDevSettings@react@facebook@@@4@@Z
?InitializeLogging@react@facebook@@YAX$$QEAV?$function@$$A6AXW4RCTLogLevel@react@facebook@@PEBD@Z@std@@@Z
?InitializeTracing@react@facebook@@YAXPEAUINativeTraceHandler@12@@Z
?Make@IWebSocketResource@Networking@React@Microsoft@@SA?AV?$shared_ptr@UIWebSocketResource@Networking@React@Microsoft@@@std@@XZ
?Make@JSBigAbiString@react@facebook@@SA?AV?$unique_ptr@$$CBUJSBigAbiString@react@facebook@@U?$default_delete@$$CBUJSBigAbiString@react@facebook@@@std@@@std@@$$QEAV?$unique_ptr@U?$IAbiArray@D@AbiSafe@@UAbiObjectDeleter@2@@5@@Z
?at@dynamic@folly@@QEGBAAEBU12@V?$Range@PEBD@2@@Z
?getRuntimeExecutor@Instance@react@facebook@@QEAA?AV?$function@$$A6AX$$QEAV?$function@$$A6AXAEAVRuntime@jsi@facebook@@@Z@std@@@Z@std@@XZ
?callJSFunction@Instance@react@facebook@@QEAAX$$QEAV?$basic_string@DU?$char_traits@D@std@@V?$allocator@D@2@@std@@0$$QEAUdynamic@folly@@@Z
??$to_ascii_with_route@$09U?$to_ascii_alphabet@$0A@@folly@@$0BE@@detail@folly@@YA_KAEAY0BE@D_K@Z
??$to_ascii_with_route@$09U?$to_ascii_alphabet@$0A@@folly@@@detail@folly@@YA_KPEADPEBD_K@Z
??$to_ascii_size_route@$09@detail@folly@@YA_K_K@Z
?getModuleRegistry@Instance@react@facebook@@QEAAAEAVModuleRegistry@23@XZ
?get_ptr@dynamic@folly@@QEGBAPEBU12@V?$Range@PEBD@2@@Z
?get_ptrImpl@dynamic@folly@@AEGBAPEBU12@AEBU12@@Z
?loadScriptFromString@Instance@react@facebook@@QEAAXV?$unique_ptr@$$CBVJSBigString@react@facebook@@U?$default_delete@$$CBVJSBigString@react@facebook@@@std@@@std@@V?$basic_string@DU?$char_traits@D@std@@V?$allocator@D@2@@5@_N@Z
?moduleNames@ModuleRegistry@react@facebook@@QEAA?AV?$vector@V?$basic_string@DU?$char_traits@D@std@@V?$allocator@D@2@@std@@V?$allocator@V?$basic_string@DU?$char_traits@D@std@@V?$allocator@D@2@@std@@@2@@std@@XZ
?assertionFailure@detail@folly@@YAXPEBD00I0H@Z
?parseJson@folly@@YA?AUdynamic@1@V?$Range@PEBD@1@@Z
?setGlobalVariable@Instance@react@facebook@@QEAAXV?$basic_string@DU?$char_traits@D@std@@V?$allocator@D@2@@std@@V?$unique_ptr@$$CBVJSBigString@react@facebook@@U?$default_delete@$$CBVJSBigString@react@facebook@@@std@@@5@@Z
?size@dynamic@folly@@QEBA_KXZ
?toJson@folly@@YA?AV?$basic_string@DU?$char_traits@D@std@@V?$allocator@D@2@@std@@AEBUdynamic@1@@Z
?typeName@dynamic@folly@@QEBAPEBDXZ
?Utf16ToUtf8@Unicode@Common@Microsoft@@YA?AV?$basic_string@DU?$char_traits@D@std@@V?$allocator@D@2@@std@@AEBV?$basic_string@_WU?$char_traits@_W@std@@V?$allocator@_W@2@@5@@Z
?SetRuntimeOptionBool@React@Microsoft@@YAX$$QEAV?$basic_string@DU?$char_traits@D@std@@V?$allocator@D@2@@std@@_N@Z
?SetRuntimeOptionInt@React@Microsoft@@YAX$$QEAV?$basic_string@DU?$char_traits@D@std@@V?$allocator@D@2@@std@@H@Z
?SetRuntimeOptionString@React@Microsoft@@YAX$$QEAV?$basic_string@DU?$char_traits@D@std@@V?$allocator@D@2@@std@@0@Z
?GetRuntimeOptionBool@React@Microsoft@@YA?B_NAEBV?$basic_string@DU?$char_traits@D@std@@V?$allocator@D@2@@std@@@Z
?GetRuntimeOptionInt@React@Microsoft@@YA?BHAEBV?$basic_string@DU?$char_traits@D@std@@V?$allocator@D@2@@std@@@Z
?GetRuntimeOptionString@React@Microsoft@@YA?BV?$basic_string@DU?$char_traits@D@std@@V?$allocator@D@2@@std@@AEBV34@@Z
?makeChakraRuntime@JSI@Microsoft@@YA?AV?$unique_ptr@VRuntime@jsi@facebook@@U?$default_delete@VRuntime@jsi@facebook@@@std@@@std@@$$QEAUChakraRuntimeArgs@12@@Z
?Make@IHttpResource@Networking@React@Microsoft@@SA?AV?$shared_ptr@UIHttpResource@Networking@React@Microsoft@@@std@@XZ
?MakeJSQueueThread@ReactNative@Microsoft@@YA?AV?$shared_ptr@VMessageQueueThread@react@facebook@@@std@@XZ
?Hash128@SpookyHashV2@hash@folly@@SAXPEBX_KPEA_K2@Z
??1Instance@react@facebook@@UEAA@XZ
??1InstanceTargetDelegate@jsinspector_modern@react@facebook@@UEAA@XZ
?invokeAsync@JSCallInvoker@Instance@react@facebook@@UEAAX$$QEAV?$function@$$A6AXAEAVRuntime@jsi@facebook@@@Z@std@@@Z
?invokeSync@JSCallInvoker@Instance@react@facebook@@UEAAX$$QEAV?$function@$$A6AXAEAVRuntime@jsi@facebook@@@Z@std@@@Z

MicrosoftReactSetRuntimeOptionBool
MicrosoftReactSetRuntimeOptionInt
MicrosoftReactSetRuntimeOptionString
MicrosoftReactGetRuntimeOptionBool
MicrosoftReactGetRuntimeOptionInt
MicrosoftReactGetRuntimeOptionString

YGConfigFree
YGConfigGetContext
YGConfigGetDefault
YGConfigGetUseWebDefaults
YGConfigIsExperimentalFeatureEnabled
YGConfigNew
YGConfigSetContext
YGConfigSetErrata
YGConfigSetExperimentalFeatureEnabled
YGConfigSetLogger
YGConfigSetPointScaleFactor
YGConfigSetUseWebDefaults
YGFloatIsUndefined
YGNodeCalculateLayout
YGNodeCanUseCachedMeasurement
YGNodeCopyStyle
YGNodeFree
YGNodeFreeRecursive
YGNodeGetChild
YGNodeGetChildCount
YGNodeGetContext
YGNodeGetHasNewLayout
YGNodeGetNodeType
YGNodeGetParent
YGNodeInsertChild
YGNodeIsDirty
YGNodeLayoutGetBorder
YGNodeLayoutGetBottom
YGNodeLayoutGetDirection
YGNodeLayoutGetHeight
YGNodeLayoutGetLeft
YGNodeLayoutGetMargin
YGNodeLayoutGetPadding
YGNodeLayoutGetRight
YGNodeLayoutGetTop
YGNodeLayoutGetWidth
YGNodeMarkDirty
YGNodeNew
YGNodeNewWithConfig
YGNodeRemoveChild
YGNodeReset
YGNodeSetBaselineFunc
YGNodeSetContext
YGNodeSetHasNewLayout
YGNodeSetMeasureFunc
YGNodeSetNodeType
YGNodeStyleGetAlignContent
YGNodeStyleGetAlignItems
YGNodeStyleGetAlignSelf
YGNodeStyleGetAspectRatio
YGNodeStyleGetBorder
YGNodeStyleGetDirection
YGNodeStyleGetDisplay
YGNodeStyleGetFlex
YGNodeStyleGetFlexBasis
YGNodeStyleGetFlexDirection
YGNodeStyleGetFlexGrow
YGNodeStyleGetFlexShrink
YGNodeStyleGetFlexWrap
YGNodeStyleGetHeight
YGNodeStyleGetJustifyContent
YGNodeStyleGetMargin
YGNodeStyleGetMaxHeight
YGNodeStyleGetMaxWidth
YGNodeStyleGetMinHeight
YGNodeStyleGetMinWidth
YGNodeStyleGetOverflow
YGNodeStyleGetPadding
YGNodeStyleGetPosition
YGNodeStyleGetWidth
YGNodeStyleSetAlignContent
YGNodeStyleSetAlignItems
YGNodeStyleSetAlignSelf
YGNodeStyleSetAspectRatio
YGNodeStyleSetBorder
YGNodeStyleSetDirection
YGNodeStyleSetDisplay
YGNodeStyleSetFlex
YGNodeStyleSetFlexBasis
YGNodeStyleSetFlexBasisAuto
YGNodeStyleSetFlexBasisPercent
YGNodeStyleSetFlexDirection
YGNodeStyleSetFlexGrow
YGNodeStyleSetFlexShrink
YGNodeStyleSetFlexWrap
YGNodeStyleSetGap
YGNodeStyleSetHeight
YGNodeStyleSetHeightAuto
YGNodeStyleSetHeightPercent
YGNodeStyleSetJustifyContent
YGNodeStyleSetMargin
YGNodeStyleSetMarginAuto
YGNodeStyleSetMarginPercent
YGNodeStyleSetMaxHeight
YGNodeStyleSetMaxHeightPercent
YGNodeStyleSetMaxWidth
YGNodeStyleSetMaxWidthPercent
YGNodeStyleSetMinHeight
YGNodeStyleSetMinHeightPercent
YGNodeStyleSetMinWidth
YGNodeStyleSetMinWidthPercent
YGNodeStyleSetOverflow
YGNodeStyleSetPadding
YGNodeStyleSetPaddingPercent
YGNodeStyleSetPosition
YGNodeStyleSetPositionPercent
YGNodeStyleSetPositionType
YGNodeStyleSetWidth
YGNodeStyleSetWidthAuto
YGNodeStyleSetWidthPercent
YGUnitToString

DllCanUnloadNow = WINRT_CanUnloadNow                    PRIVATE
DllGetActivationFactory = WINRT_GetActivationFactory    PRIVATE
