EXPORTS
?destroy@dynamic@folly@@AAEXXZ
??8dynamic@folly@@QBE_NABU01@@Z
??4dynamic@folly@@QAEAAU01@ABU01@@Z
?hash@dynamic@folly@@QBEIXZ
??0TypeError@folly@@QAE@ABV?$basic_string@DU?$char_traits@D@std@@V?$allocator@D@2@@std@@W4Type@dynamic@1@@Z
??1TypeError@folly@@UAE@XZ
?typeName@dynamic@folly@@QBEPBDXZ
??4dynamic@folly@@QAEAAU01@$$QAU01@@Z
?size@dynamic@folly@@QBEIXZ
?print_as_pseudo_json@dynamic@folly@@ABEXAAV?$basic_ostream@DU?$char_traits@D@std@@@std@@@Z
??0TypeError@folly@@QAE@ABV?$basic_string@DU?$char_traits@D@std@@V?$allocator@D@2@@std@@W4Type@dynamic@1@1@Z
?makeConversionError@folly@@YG?AVConversionError@1@W4ConversionCode@1@V?$Range@PBD@1@@Z
??$str_to_integral@_J@detail@folly@@YG?AV?$Expected@_JW4ConversionCode@folly@@@1@PAV?$Range@PBD@1@@Z
?parseJson@folly@@YG?AUdynamic@1@V?$Range@PBD@1@@Z
?str_to_bool@detail@folly@@YG?AV?$Expected@_NW4ConversionCode@folly@@@2@PAV?$Range@PBD@2@@Z
??$str_to_floating@N@detail@folly@@YA?AV?$Expected@NW4ConversionCode@folly@@@1@PAV?$Range@PBD@1@@Z
?toJson@folly@@YA?AV?$basic_string@DU?$char_traits@D@std@@V?$allocator@D@2@@std@@ABUdynamic@1@@Z

??0ModuleProvider@windows@react@@QAE@$$QAU012@@Z
??0ModuleProvider@windows@react@@QAE@PBD$$QAV?$function@$$A6A?AV?$unique_ptr@VCxxModule@module@xplat@facebook@@U?$default_delete@VCxxModule@module@xplat@facebook@@@std@@@std@@XZ@std@@ABV?$shared_ptr@VMessageQueueThread@react@facebook@@@4@@Z

??0AppState@react@facebook@@QAE@XZ
?update@DeviceInfo@uwp@react@@QAEXXZ
??0DeviceInfoModule@uwp@react@@QAE@V?$shared_ptr@VDeviceInfo@uwp@react@@@std@@@Z
??1DevSupportManager@uwp@react@@QAE@XZ
??0LocationObserverModule@uwp@react@@QAE@ABV?$shared_ptr@UIReactContext@oReactNative@@@std@@@Z
??0WebSocketModule@uwp@react@@QAE@XZ

?utf16ToUtf8@unicode@react@facebook@@YG?AV?$basic_string@DU?$char_traits@D@std@@V?$allocator@D@2@@std@@ABV?$basic_string@_WU?$char_traits@_W@std@@V?$allocator@_W@2@@5@@Z
?utf8ToUtf16@unicode@react@facebook@@YG?AV?$basic_string@_WU?$char_traits@_W@std@@V?$allocator@_W@2@@std@@ABV?$basic_string@DU?$char_traits@D@std@@V?$allocator@D@2@@5@@Z

?demangle@folly@@YA?AV?$basic_fbstring@DU?$char_traits@D@std@@V?$allocator@D@2@V?$fbstring_core@D@folly@@@1@PBD@Z

